; Function Attrs: mustprogress nofree norecurse nosync nounwind willreturn memory(read, argmem: readwrite, inaccessiblemem: readwrite) uwtable
define void @_ZNK5arrow2io21FixedSizeBufferWriter4TellEv(ptr noalias nocapture writeonly sret(%"class.arrow::Result.22") align 8 %agg.result, ptr nocapture noundef nonnull readonly align 8 dereferenceable(24) %this) unnamed_addr #15 align 2 {
entry:
  %impl_ = getelementptr inbounds i8, ptr %this, i64 16
  %0 = load ptr, ptr %impl_, align 8
  tail call void @llvm.experimental.noalias.scope.decl(metadata !108)
  %position_.i = getelementptr inbounds i8, ptr %0, i64 72
  store ptr null, ptr %agg.result, align 8, !alias.scope !108
  %storage_.i.i.i = getelementptr inbounds i8, ptr %agg.result, i64 8
  %1 = load i64, ptr %position_.i, align 8, !noalias !108
  store i64 %1, ptr %storage_.i.i.i, align 8, !alias.scope !108
  ret void
}